#include <math.h>
#include <stdio.h>
#include <stdlib.h>
#include <string.h>
#include <iostream>
using namespace std;

int reverse(int);
int main()
{
	int i,a[6];
	for(i=0;i<=5;i++)
	{
		cin>>a[i];
	}
	for(i=0;i<=5;i++)
	{
		a[i]=reverse(a[i]);
		cout<<a[i]<<endl;
	}
	return 0;
}
int reverse(int num)
{
	int sum=0,i;
       int t;
	for(t=1;1;t++)
	{
		if(abs(num/pow((double)10,(int)t))>=1)
			continue;
		else
			break;
	}
	for(i=1;i<=t;i++)
	{
		sum=sum+(num%10)*pow((double)10,(int)t-i);
		num=num/10;
	}
	return sum;
}



	